target datalayout = "e-m:e-p270:32:32-p271:32:32-p272:64:64-i64:64-i128:128-f80:128-n8:16:32:64-S128"
target triple = "x86_64-pc-linux-gnu"

%union.__SOCKADDR_ARG = type { ptr }

; Function Attrs: nounwind uwtable
define dso_local i32 @slurm_accept_msg_conn(i32 noundef %0, ptr noundef %1) #0 {
  %3 = alloca i32, align 4
  %4 = alloca ptr, align 8
  %5 = alloca i32, align 4
  %6 = alloca i32, align 4
  %7 = alloca %union.__SOCKADDR_ARG, align 8
  store i32 %0, ptr %3, align 4
  store ptr %1, ptr %4, align 8
  call void @llvm.lifetime.start.p0(i64 4, ptr %5) #9
  store i32 128, ptr %5, align 4
  call void @llvm.lifetime.start.p0(i64 4, ptr %6) #9
  %8 = load i32, ptr %3, align 4
  %9 = load ptr, ptr %4, align 8
  store ptr %9, ptr %7, align 8
  %10 = getelementptr inbounds nuw %union.__SOCKADDR_ARG, ptr %7, i32 0, i32 0
  %11 = load ptr, ptr %10, align 8
  %12 = call i32 @accept4(i32 noundef %8, ptr %11, ptr noundef %5, i32 noundef 524288)
  store i32 %12, ptr %6, align 4
  %13 = load i32, ptr %6, align 4
  %14 = call i32 @net_set_nodelay(i32 noundef %13, i1 noundef zeroext true, ptr noundef null)
  %15 = load i32, ptr %6, align 4
  call void @llvm.lifetime.end.p0(i64 4, ptr %6) #9
  call void @llvm.lifetime.end.p0(i64 4, ptr %5) #9
  ret i32 %15
}