; Function Attrs: nounwind uwtable
define dso_local noundef i32 @slurm_accept_msg_conn(i32 noundef %0, ptr noundef %1) local_unnamed_addr #0 {
  %3 = alloca i32, align 4
  call void @llvm.lifetime.start.p0(i64 4, ptr nonnull %3) #11
  store i32 128, ptr %3, align 4
  %4 = call i32 @accept4(i32 noundef %0, ptr %1, ptr noundef nonnull %3, i32 noundef 524288) #11
  %5 = call i32 @net_set_nodelay(i32 noundef %4, i1 noundef zeroext true, ptr noundef null) #11
  call void @llvm.lifetime.end.p0(i64 4, ptr nonnull %3) #11
  ret i32 %4
}